target datalayout = "e-m:e-p270:32:32-p271:32:32-p272:64:64-i64:64-i128:128-f80:128-n8:16:32:64-S128"
target triple = "x86_64-pc-linux-gnu"

%"class.pbrt::Point2" = type { %"class.pbrt::Tuple2" }
%"class.pbrt::Tuple2" = type { i32, i32 }
%"class.pstd::optional" = type { %"union.std::aligned_storage<48, 8>::type", i8, [7 x i8] }
%"union.std::aligned_storage<48, 8>::type" = type { [48 x i8] }
%class.anon = type { %"class.pstd::optional", %"class.pbrt::Image" }
%"class.pbrt::Image" = type { i32, %"class.pbrt::Point2", %"class.pstd::vector", %"class.pbrt::ColorEncoding", %"class.pstd::vector.34", %"class.pstd::vector.36", %"class.pstd::vector.38" }
%"class.pstd::vector" = type { %"class.pstd::pmr::polymorphic_allocator", ptr, i64, i64 }
%"class.pstd::pmr::polymorphic_allocator" = type { ptr }
%"class.pbrt::ColorEncoding" = type { %"class.pbrt::TaggedPointer" }
%"class.pbrt::TaggedPointer" = type { i64 }
%"class.pstd::vector.34" = type { %"class.pstd::pmr::polymorphic_allocator.35", ptr, i64, i64 }
%"class.pstd::pmr::polymorphic_allocator.35" = type { ptr }
%"class.pstd::vector.36" = type { %"class.pstd::pmr::polymorphic_allocator.37", ptr, i64, i64 }
%"class.pstd::pmr::polymorphic_allocator.37" = type { ptr }
%"class.pstd::vector.38" = type { %"class.pstd::pmr::polymorphic_allocator.39", ptr, i64, i64 }
%"class.pstd::pmr::polymorphic_allocator.39" = type { ptr }

; Function Attrs: inlinehint mustprogress uwtable
define internal void @"_ZZN4pbrtL19GetImageDisplayItemERKNSt7__cxx1112basic_stringIcSt11char_traitsIcESaIcEEERKNS_5ImageEN4pstd8optionalINS_16ImageChannelDescEEEEN3$_0C2ERKSF_"(ptr noundef nonnull align 8 dereferenceable(208) %0, ptr noundef nonnull align 8 dereferenceable(208) %1) unnamed_addr #8 align 2 personality ptr @__gxx_personality_v0 {
  %3 = alloca ptr, align 8
  %4 = alloca ptr, align 8
  %5 = alloca ptr, align 8
  %6 = alloca i32, align 4
  store ptr %0, ptr %3, align 8, !tbaa !164
  store ptr %1, ptr %4, align 8, !tbaa !164
  %7 = load ptr, ptr %3, align 8
  %8 = getelementptr inbounds nuw %class.anon, ptr %7, i32 0, i32 0
  %9 = load ptr, ptr %4, align 8, !tbaa !164
  %10 = getelementptr inbounds nuw %class.anon, ptr %9, i32 0, i32 0
  call void @_ZN4pstd8optionalIN4pbrt16ImageChannelDescEEC2ERKS3_(ptr noundef nonnull align 8 dereferenceable(49) %8, ptr noundef nonnull align 8 dereferenceable(49) %10)
  %11 = getelementptr inbounds nuw %class.anon, ptr %7, i32 0, i32 1
  %12 = load ptr, ptr %4, align 8, !tbaa !164
  %13 = getelementptr inbounds nuw %class.anon, ptr %12, i32 0, i32 1
  invoke void @_ZN4pbrt5ImageC2ERKS0_(ptr noundef nonnull align 8 dereferenceable(152) %11, ptr noundef nonnull align 8 dereferenceable(152) %13)
          to label %14 unwind label %15

14:                                               ; preds = %2
  ret void

15:                                               ; preds = %2
  %16 = landingpad { ptr, i32 }
          cleanup
  %17 = extractvalue { ptr, i32 } %16, 0
  store ptr %17, ptr %5, align 8
  %18 = extractvalue { ptr, i32 } %16, 1
  store i32 %18, ptr %6, align 4
  call void @_ZN4pstd8optionalIN4pbrt16ImageChannelDescEED2Ev(ptr noundef nonnull align 8 dereferenceable(49) %8) #13
  br label %19

19:                                               ; preds = %15
  %20 = load ptr, ptr %5, align 8
  %21 = load i32, ptr %6, align 4
  %22 = insertvalue { ptr, i32 } poison, ptr %20, 0
  %23 = insertvalue { ptr, i32 } %22, i32 %21, 1
  resume { ptr, i32 } %23
}

; Function Attrs: inlinehint mustprogress nounwind uwtable
define internal void @"_ZZN4pbrtL19GetImageDisplayItemERKNSt7__cxx1112basic_stringIcSt11char_traitsIcESaIcEEERKNS_5ImageEN4pstd8optionalINS_16ImageChannelDescEEEEN3$_0D2Ev"(ptr noundef nonnull align 8 dereferenceable(208) %0) unnamed_addr #12 align 2 {
  %2 = alloca ptr, align 8
  store ptr %0, ptr %2, align 8, !tbaa !164
  %3 = load ptr, ptr %2, align 8
  %4 = getelementptr inbounds nuw %class.anon, ptr %3, i32 0, i32 1
  call void @_ZN4pbrt5ImageD2Ev(ptr noundef nonnull align 8 dereferenceable(152) %4) #13
  %5 = getelementptr inbounds nuw %class.anon, ptr %3, i32 0, i32 0
  call void @_ZN4pstd8optionalIN4pbrt16ImageChannelDescEED2Ev(ptr noundef nonnull align 8 dereferenceable(49) %5) #13
  ret void
}

; Function Attrs: mustprogress uwtable
define internal void @"_ZNSt14_Function_base13_Base_managerIZN4pbrtL19GetImageDisplayItemERKNSt7__cxx1112basic_stringIcSt11char_traitsIcESaIcEEERKNS1_5ImageEN4pstd8optionalINS1_16ImageChannelDescEEEE3$_0E9_M_createIRKSH_EEvRSt9_Any_dataOT_St17integral_constantIbLb0EE"(ptr noundef nonnull align 8 dereferenceable(16) %0, ptr noundef nonnull align 8 dereferenceable(208) %1) #1 align 2 personality ptr @__gxx_personality_v0 {
  %3 = alloca ptr, align 8
  %4 = alloca ptr, align 8
  %5 = alloca ptr, align 8
  %6 = alloca i32, align 4
  store ptr %0, ptr %3, align 8, !tbaa !421
  store ptr %1, ptr %4, align 8, !tbaa !164
  %7 = call noalias noundef nonnull ptr @_Znwm(i64 noundef 208) #24
  %8 = load ptr, ptr %4, align 8, !tbaa !164
  invoke void @"_ZZN4pbrtL19GetImageDisplayItemERKNSt7__cxx1112basic_stringIcSt11char_traitsIcESaIcEEERKNS_5ImageEN4pstd8optionalINS_16ImageChannelDescEEEEN3$_0C2ERKSF_"(ptr noundef nonnull align 8 dereferenceable(208) %7, ptr noundef nonnull align 8 dereferenceable(208) %8)
          to label %9 unwind label %12

9:                                                ; preds = %2
  %10 = load ptr, ptr %3, align 8, !tbaa !421
  %11 = call noundef nonnull align 8 dereferenceable(8) ptr @"_ZNSt9_Any_data9_M_accessIPZN4pbrtL19GetImageDisplayItemERKNSt7__cxx1112basic_stringIcSt11char_traitsIcESaIcEEERKNS1_5ImageEN4pstd8optionalINS1_16ImageChannelDescEEEE3$_0EERT_v"(ptr noundef nonnull align 8 dereferenceable(16) %10) #13
  store ptr %7, ptr %11, align 8, !tbaa !164
  ret void

12:                                               ; preds = %2
  %13 = landingpad { ptr, i32 }
          cleanup
  %14 = extractvalue { ptr, i32 } %13, 0
  store ptr %14, ptr %5, align 8
  %15 = extractvalue { ptr, i32 } %13, 1
  store i32 %15, ptr %6, align 4
  call void @_ZdlPvm(ptr noundef %7, i64 noundef 208) #25
  br label %16

16:                                               ; preds = %12
  %17 = load ptr, ptr %5, align 8
  %18 = load i32, ptr %6, align 4
  %19 = insertvalue { ptr, i32 } poison, ptr %17, 0
  %20 = insertvalue { ptr, i32 } %19, i32 %18, 1
  resume { ptr, i32 } %20
}

; Function Attrs: mustprogress nounwind uwtable
define linkonce_odr dso_local noundef ptr @_ZNKSt9_Any_data9_M_accessEv(ptr noundef nonnull align 8 dereferenceable(16) %0) #3 comdat align 2 {
  %2 = alloca ptr, align 8
  store ptr %0, ptr %2, align 8, !tbaa !421
  %3 = load ptr, ptr %2, align 8
  %4 = getelementptr inbounds [16 x i8], ptr %3, i64 0, i64 0
  ret ptr %4
}

; Function Attrs: mustprogress nounwind uwtable
define internal void @"_ZNSt14_Function_base13_Base_managerIZN4pbrtL19GetImageDisplayItemERKNSt7__cxx1112basic_stringIcSt11char_traitsIcESaIcEEERKNS1_5ImageEN4pstd8optionalINS1_16ImageChannelDescEEEE3$_0E10_M_destroyERSt9_Any_dataSt17integral_constantIbLb0EE"(ptr noundef nonnull align 8 dereferenceable(16) %0) #3 align 2 {
  %2 = alloca ptr, align 8
  store ptr %0, ptr %2, align 8, !tbaa !421
  %3 = load ptr, ptr %2, align 8, !tbaa !421
  %4 = call noundef nonnull align 8 dereferenceable(8) ptr @"_ZNSt9_Any_data9_M_accessIPZN4pbrtL19GetImageDisplayItemERKNSt7__cxx1112basic_stringIcSt11char_traitsIcESaIcEEERKNS1_5ImageEN4pstd8optionalINS1_16ImageChannelDescEEEE3$_0EERT_v"(ptr noundef nonnull align 8 dereferenceable(16) %3) #13
  %5 = load ptr, ptr %4, align 8, !tbaa !164
  %6 = icmp eq ptr %5, null
  br i1 %6, label %8, label %7

7:                                                ; preds = %1
  call void @"_ZZN4pbrtL19GetImageDisplayItemERKNSt7__cxx1112basic_stringIcSt11char_traitsIcESaIcEEERKNS_5ImageEN4pstd8optionalINS_16ImageChannelDescEEEEN3$_0D2Ev"(ptr noundef nonnull align 8 dereferenceable(208) %5) #13
  call void @_ZdlPvm(ptr noundef %5, i64 noundef 208) #25
  br label %8

8:                                                ; preds = %7, %1
  ret void
}

; Function Attrs: mustprogress uwtable
define internal void @"_ZNSt14_Function_base13_Base_managerIZN4pbrtL19GetImageDisplayItemERKNSt7__cxx1112basic_stringIcSt11char_traitsIcESaIcEEERKNS1_5ImageEN4pstd8optionalINS1_16ImageChannelDescEEEE3$_0E15_M_init_functorIRKSH_EEvRSt9_Any_dataOT_"(ptr noundef nonnull align 8 dereferenceable(16) %0, ptr noundef nonnull align 8 dereferenceable(208) %1) #1 align 2 {
  %3 = alloca ptr, align 8
  %4 = alloca ptr, align 8
  store ptr %0, ptr %3, align 8, !tbaa !421
  store ptr %1, ptr %4, align 8, !tbaa !164
  %5 = load ptr, ptr %3, align 8, !tbaa !421
  %6 = load ptr, ptr %4, align 8, !tbaa !164
  call void @"_ZNSt14_Function_base13_Base_managerIZN4pbrtL19GetImageDisplayItemERKNSt7__cxx1112basic_stringIcSt11char_traitsIcESaIcEEERKNS1_5ImageEN4pstd8optionalINS1_16ImageChannelDescEEEE3$_0E9_M_createIRKSH_EEvRSt9_Any_dataOT_St17integral_constantIbLb0EE"(ptr noundef nonnull align 8 dereferenceable(16) %5, ptr noundef nonnull align 8 dereferenceable(208) %6)
  ret void
}

; Function Attrs: mustprogress nounwind uwtable
define internal noundef nonnull align 8 dereferenceable(8) ptr @"_ZNKSt9_Any_data9_M_accessIPZN4pbrtL19GetImageDisplayItemERKNSt7__cxx1112basic_stringIcSt11char_traitsIcESaIcEEERKNS1_5ImageEN4pstd8optionalINS1_16ImageChannelDescEEEE3$_0EERKT_v"(ptr noundef nonnull align 8 dereferenceable(16) %0) #3 align 2 {
  %2 = alloca ptr, align 8
  store ptr %0, ptr %2, align 8, !tbaa !421
  %3 = load ptr, ptr %2, align 8
  %4 = call noundef ptr @_ZNKSt9_Any_data9_M_accessEv(ptr noundef nonnull align 8 dereferenceable(16) %3) #13
  ret ptr %4
}

; Function Attrs: mustprogress nounwind uwtable
define linkonce_odr dso_local noundef ptr @_ZNSt9_Any_data9_M_accessEv(ptr noundef nonnull align 8 dereferenceable(16) %0) #3 comdat align 2 {
  %2 = alloca ptr, align 8
  store ptr %0, ptr %2, align 8, !tbaa !421
  %3 = load ptr, ptr %2, align 8
  %4 = getelementptr inbounds [16 x i8], ptr %3, i64 0, i64 0
  ret ptr %4
}

; Function Attrs: mustprogress uwtable
define internal noundef zeroext i1 @"_ZNSt14_Function_base13_Base_managerIZN4pbrtL19GetImageDisplayItemERKNSt7__cxx1112basic_stringIcSt11char_traitsIcESaIcEEERKNS1_5ImageEN4pstd8optionalINS1_16ImageChannelDescEEEE3$_0E10_M_managerERSt9_Any_dataRKSJ_St18_Manager_operation"(ptr noundef nonnull align 8 dereferenceable(16) %0, ptr noundef nonnull align 8 dereferenceable(16) %1, i32 noundef %2) #1 align 2 {
  %4 = alloca ptr, align 8
  %5 = alloca ptr, align 8
  %6 = alloca i32, align 4
  store ptr %0, ptr %4, align 8, !tbaa !421
  store ptr %1, ptr %5, align 8, !tbaa !421
  store i32 %2, ptr %6, align 4, !tbaa !425
  %7 = load i32, ptr %6, align 4, !tbaa !425
  switch i32 %7, label %22 [
    i32 0, label %8
    i32 1, label %11
    i32 2, label %16
    i32 3, label %20
  ]

8:                                                ; preds = %3
  %9 = load ptr, ptr %4, align 8, !tbaa !421
  %10 = call noundef nonnull align 8 dereferenceable(8) ptr @_ZNSt9_Any_data9_M_accessIPKSt9type_infoEERT_v(ptr noundef nonnull align 8 dereferenceable(16) %9) #13
  store ptr @"_ZTIZN4pbrtL19GetImageDisplayItemERKNSt7__cxx1112basic_stringIcSt11char_traitsIcESaIcEEERKNS_5ImageEN4pstd8optionalINS_16ImageChannelDescEEEE3$_0", ptr %10, align 8, !tbaa !427
  br label %22

11:                                               ; preds = %3
  %12 = load ptr, ptr %5, align 8, !tbaa !421
  %13 = call noundef ptr @"_ZNSt14_Function_base13_Base_managerIZN4pbrtL19GetImageDisplayItemERKNSt7__cxx1112basic_stringIcSt11char_traitsIcESaIcEEERKNS1_5ImageEN4pstd8optionalINS1_16ImageChannelDescEEEE3$_0E14_M_get_pointerERKSt9_Any_data"(ptr noundef nonnull align 8 dereferenceable(16) %12) #13
  %14 = load ptr, ptr %4, align 8, !tbaa !421
  %15 = call noundef nonnull align 8 dereferenceable(8) ptr @"_ZNSt9_Any_data9_M_accessIPZN4pbrtL19GetImageDisplayItemERKNSt7__cxx1112basic_stringIcSt11char_traitsIcESaIcEEERKNS1_5ImageEN4pstd8optionalINS1_16ImageChannelDescEEEE3$_0EERT_v"(ptr noundef nonnull align 8 dereferenceable(16) %14) #13
  store ptr %13, ptr %15, align 8, !tbaa !164
  br label %22

16:                                               ; preds = %3
  %17 = load ptr, ptr %4, align 8, !tbaa !421
  %18 = load ptr, ptr %5, align 8, !tbaa !421
  %19 = call noundef ptr @"_ZNSt14_Function_base13_Base_managerIZN4pbrtL19GetImageDisplayItemERKNSt7__cxx1112basic_stringIcSt11char_traitsIcESaIcEEERKNS1_5ImageEN4pstd8optionalINS1_16ImageChannelDescEEEE3$_0E14_M_get_pointerERKSt9_Any_data"(ptr noundef nonnull align 8 dereferenceable(16) %18) #13
  call void @"_ZNSt14_Function_base13_Base_managerIZN4pbrtL19GetImageDisplayItemERKNSt7__cxx1112basic_stringIcSt11char_traitsIcESaIcEEERKNS1_5ImageEN4pstd8optionalINS1_16ImageChannelDescEEEE3$_0E15_M_init_functorIRKSH_EEvRSt9_Any_dataOT_"(ptr noundef nonnull align 8 dereferenceable(16) %17, ptr noundef nonnull align 8 dereferenceable(208) %19)
  br label %22

20:                                               ; preds = %3
  %21 = load ptr, ptr %4, align 8, !tbaa !421
  call void @"_ZNSt14_Function_base13_Base_managerIZN4pbrtL19GetImageDisplayItemERKNSt7__cxx1112basic_stringIcSt11char_traitsIcESaIcEEERKNS1_5ImageEN4pstd8optionalINS1_16ImageChannelDescEEEE3$_0E10_M_destroyERSt9_Any_dataSt17integral_constantIbLb0EE"(ptr noundef nonnull align 8 dereferenceable(16) %21)
  br label %22

22:                                               ; preds = %3, %20, %16, %11, %8
  ret i1 false
}

; Function Attrs: mustprogress nounwind uwtable
define internal noundef nonnull align 8 dereferenceable(8) ptr @"_ZNSt9_Any_data9_M_accessIPZN4pbrtL19GetImageDisplayItemERKNSt7__cxx1112basic_stringIcSt11char_traitsIcESaIcEEERKNS1_5ImageEN4pstd8optionalINS1_16ImageChannelDescEEEE3$_0EERT_v"(ptr noundef nonnull align 8 dereferenceable(16) %0) #3 align 2 {
  %2 = alloca ptr, align 8
  store ptr %0, ptr %2, align 8, !tbaa !421
  %3 = load ptr, ptr %2, align 8
  %4 = call noundef ptr @_ZNSt9_Any_data9_M_accessEv(ptr noundef nonnull align 8 dereferenceable(16) %3) #13
  ret ptr %4
}

; Function Attrs: mustprogress nounwind uwtable
define internal noundef ptr @"_ZNSt14_Function_base13_Base_managerIZN4pbrtL19GetImageDisplayItemERKNSt7__cxx1112basic_stringIcSt11char_traitsIcESaIcEEERKNS1_5ImageEN4pstd8optionalINS1_16ImageChannelDescEEEE3$_0E14_M_get_pointerERKSt9_Any_data"(ptr noundef nonnull align 8 dereferenceable(16) %0) #3 align 2 {
  %2 = alloca ptr, align 8
  store ptr %0, ptr %2, align 8, !tbaa !421
  %3 = load ptr, ptr %2, align 8, !tbaa !421
  %4 = call noundef nonnull align 8 dereferenceable(8) ptr @"_ZNKSt9_Any_data9_M_accessIPZN4pbrtL19GetImageDisplayItemERKNSt7__cxx1112basic_stringIcSt11char_traitsIcESaIcEEERKNS1_5ImageEN4pstd8optionalINS1_16ImageChannelDescEEEE3$_0EERKT_v"(ptr noundef nonnull align 8 dereferenceable(16) %3) #13
  %5 = load ptr, ptr %4, align 8, !tbaa !164
  ret ptr %5
}

; Function Attrs: mustprogress nounwind uwtable
define linkonce_odr dso_local noundef nonnull align 8 dereferenceable(8) ptr @_ZNSt9_Any_data9_M_accessIPKSt9type_infoEERT_v(ptr noundef nonnull align 8 dereferenceable(16) %0) #3 comdat align 2 {
  %2 = alloca ptr, align 8
  store ptr %0, ptr %2, align 8, !tbaa !421
  %3 = load ptr, ptr %2, align 8
  %4 = call noundef ptr @_ZNSt9_Any_data9_M_accessEv(ptr noundef nonnull align 8 dereferenceable(16) %3) #13
  ret ptr %4
}

; Function Attrs: mustprogress uwtable
define internal noundef zeroext i1 @"_ZNSt17_Function_handlerIFvN4pbrt7Bounds2IiEEN4pstd4spanINS4_IfEEEEEZNS0_L19GetImageDisplayItemERKNSt7__cxx1112basic_stringIcSt11char_traitsIcESaIcEEERKNS0_5ImageENS3_8optionalINS0_16ImageChannelDescEEEE3$_0E10_M_managerERSt9_Any_dataRKSO_St18_Manager_operation"(ptr noundef nonnull align 8 dereferenceable(16) %0, ptr noundef nonnull align 8 dereferenceable(16) %1, i32 noundef %2) #1 align 2 {
  %4 = alloca ptr, align 8
  %5 = alloca ptr, align 8
  %6 = alloca i32, align 4
  store ptr %0, ptr %4, align 8, !tbaa !421
  store ptr %1, ptr %5, align 8, !tbaa !421
  store i32 %2, ptr %6, align 4, !tbaa !425
  %7 = load i32, ptr %6, align 4, !tbaa !425
  switch i32 %7, label %16 [
    i32 0, label %8
    i32 1, label %11
  ]

8:                                                ; preds = %3
  %9 = load ptr, ptr %4, align 8, !tbaa !421
  %10 = call noundef nonnull align 8 dereferenceable(8) ptr @_ZNSt9_Any_data9_M_accessIPKSt9type_infoEERT_v(ptr noundef nonnull align 8 dereferenceable(16) %9) #13
  store ptr @"_ZTIZN4pbrtL19GetImageDisplayItemERKNSt7__cxx1112basic_stringIcSt11char_traitsIcESaIcEEERKNS_5ImageEN4pstd8optionalINS_16ImageChannelDescEEEE3$_0", ptr %10, align 8, !tbaa !427
  br label %21

11:                                               ; preds = %3
  %12 = load ptr, ptr %5, align 8, !tbaa !421
  %13 = call noundef ptr @"_ZNSt14_Function_base13_Base_managerIZN4pbrtL19GetImageDisplayItemERKNSt7__cxx1112basic_stringIcSt11char_traitsIcESaIcEEERKNS1_5ImageEN4pstd8optionalINS1_16ImageChannelDescEEEE3$_0E14_M_get_pointerERKSt9_Any_data"(ptr noundef nonnull align 8 dereferenceable(16) %12) #13
  %14 = load ptr, ptr %4, align 8, !tbaa !421
  %15 = call noundef nonnull align 8 dereferenceable(8) ptr @"_ZNSt9_Any_data9_M_accessIPZN4pbrtL19GetImageDisplayItemERKNSt7__cxx1112basic_stringIcSt11char_traitsIcESaIcEEERKNS1_5ImageEN4pstd8optionalINS1_16ImageChannelDescEEEE3$_0EERT_v"(ptr noundef nonnull align 8 dereferenceable(16) %14) #13
  store ptr %13, ptr %15, align 8, !tbaa !164
  br label %21

16:                                               ; preds = %3
  %17 = load ptr, ptr %4, align 8, !tbaa !421
  %18 = load ptr, ptr %5, align 8, !tbaa !421
  %19 = load i32, ptr %6, align 4, !tbaa !425
  %20 = call noundef zeroext i1 @"_ZNSt14_Function_base13_Base_managerIZN4pbrtL19GetImageDisplayItemERKNSt7__cxx1112basic_stringIcSt11char_traitsIcESaIcEEERKNS1_5ImageEN4pstd8optionalINS1_16ImageChannelDescEEEE3$_0E10_M_managerERSt9_Any_dataRKSJ_St18_Manager_operation"(ptr noundef nonnull align 8 dereferenceable(16) %17, ptr noundef nonnull align 8 dereferenceable(16) %18, i32 noundef %19)
  br label %21

21:                                               ; preds = %16, %11, %8
  ret i1 false
}