; Function Attrs: mustprogress uwtable
define internal noundef zeroext i1 @"_ZNSt17_Function_handlerIFvN4pbrt7Bounds2IiEEN4pstd4spanINS4_IfEEEEEZNS0_L19GetImageDisplayItemERKNSt7__cxx1112basic_stringIcSt11char_traitsIcESaIcEEERKNS0_5ImageENS3_8optionalINS0_16ImageChannelDescEEEE3$_0E10_M_managerERSt9_Any_dataRKSO_St18_Manager_operation"(ptr noundef nonnull align 8 captures(none) dereferenceable(16) %0, ptr noundef nonnull readonly align 8 captures(none) dereferenceable(16) %1, i32 noundef %2) #1 align 2 personality ptr @__gxx_personality_v0 {
  switch i32 %2, label %6 [
    i32 0, label %4
    i32 1, label %5
  ]

4:                                                ; preds = %3
  store ptr @"_ZTIZN4pbrtL19GetImageDisplayItemERKNSt7__cxx1112basic_stringIcSt11char_traitsIcESaIcEEERKNS_5ImageEN4pstd8optionalINS_16ImageChannelDescEEEE3$_0", ptr %0, align 8, !tbaa !264
  br label %"_ZNSt14_Function_base13_Base_managerIZN4pbrtL19GetImageDisplayItemERKNSt7__cxx1112basic_stringIcSt11char_traitsIcESaIcEEERKNS1_5ImageEN4pstd8optionalINS1_16ImageChannelDescEEEE3$_0E10_M_managerERSt9_Any_dataRKSJ_St18_Manager_operation.exit"

5:                                                ; preds = %3
  %.val = load ptr, ptr %1, align 8, !tbaa !173
  store ptr %.val, ptr %0, align 8, !tbaa !173
  br label %"_ZNSt14_Function_base13_Base_managerIZN4pbrtL19GetImageDisplayItemERKNSt7__cxx1112basic_stringIcSt11char_traitsIcESaIcEEERKNS1_5ImageEN4pstd8optionalINS1_16ImageChannelDescEEEE3$_0E10_M_managerERSt9_Any_dataRKSJ_St18_Manager_operation.exit"

6:                                                ; preds = %3
  %.val6 = load ptr, ptr %1, align 8
  switch i32 %2, label %"_ZNSt14_Function_base13_Base_managerIZN4pbrtL19GetImageDisplayItemERKNSt7__cxx1112basic_stringIcSt11char_traitsIcESaIcEEERKNS1_5ImageEN4pstd8optionalINS1_16ImageChannelDescEEEE3$_0E10_M_managerERSt9_Any_dataRKSJ_St18_Manager_operation.exit" [
    i32 3, label %15
    i32 2, label %7
  ]

7:                                                ; preds = %6
  %8 = tail call noalias noundef nonnull dereferenceable(208) ptr @_Znwm(i64 noundef 208) #29
  invoke void @_ZN4pstd8optionalIN4pbrt16ImageChannelDescEEC2ERKS3_(ptr noundef nonnull align 8 dereferenceable(208) %8, ptr noundef nonnull align 8 dereferenceable(208) %.val6)
          to label %.noexc.i.i.i unwind label %13

.noexc.i.i.i:                                     ; preds = %7
  %9 = getelementptr inbounds nuw i8, ptr %8, i64 56
  %10 = getelementptr inbounds nuw i8, ptr %.val6, i64 56
  invoke void @_ZN4pbrt5ImageC2ERKS0_(ptr noundef nonnull align 8 dereferenceable(152) %9, ptr noundef nonnull align 8 dereferenceable(152) %10)
          to label %"_ZNSt14_Function_base13_Base_managerIZN4pbrtL19GetImageDisplayItemERKNSt7__cxx1112basic_stringIcSt11char_traitsIcESaIcEEERKNS1_5ImageEN4pstd8optionalINS1_16ImageChannelDescEEEE3$_0E15_M_init_functorIRKSH_EEvRSt9_Any_dataOT_.exit.i" unwind label %11

11:                                               ; preds = %.noexc.i.i.i
  %12 = landingpad { ptr, i32 }
          cleanup
  tail call void @_ZN4pstd8optionalIN4pbrt16ImageChannelDescEED2Ev(ptr noundef nonnull align 8 dereferenceable(208) %8) #24
  br label %.body.i.i.i

13:                                               ; preds = %7
  %14 = landingpad { ptr, i32 }
          cleanup
  br label %.body.i.i.i

.body.i.i.i:                                      ; preds = %13, %11
  %eh.lpad-body.i.i.i = phi { ptr, i32 } [ %14, %13 ], [ %12, %11 ]
  tail call void @_ZdlPvm(ptr noundef nonnull %8, i64 noundef 208) #26
  resume { ptr, i32 } %eh.lpad-body.i.i.i

"_ZNSt14_Function_base13_Base_managerIZN4pbrtL19GetImageDisplayItemERKNSt7__cxx1112basic_stringIcSt11char_traitsIcESaIcEEERKNS1_5ImageEN4pstd8optionalINS1_16ImageChannelDescEEEE3$_0E15_M_init_functorIRKSH_EEvRSt9_Any_dataOT_.exit.i": ; preds = %.noexc.i.i.i
  store ptr %8, ptr %0, align 8, !tbaa !173
  br label %"_ZNSt14_Function_base13_Base_managerIZN4pbrtL19GetImageDisplayItemERKNSt7__cxx1112basic_stringIcSt11char_traitsIcESaIcEEERKNS1_5ImageEN4pstd8optionalINS1_16ImageChannelDescEEEE3$_0E10_M_managerERSt9_Any_dataRKSJ_St18_Manager_operation.exit"

15:                                               ; preds = %6
  %.val7.i = load ptr, ptr %0, align 8, !tbaa !173
  %16 = icmp eq ptr %.val7.i, null
  br i1 %16, label %"_ZNSt14_Function_base13_Base_managerIZN4pbrtL19GetImageDisplayItemERKNSt7__cxx1112basic_stringIcSt11char_traitsIcESaIcEEERKNS1_5ImageEN4pstd8optionalINS1_16ImageChannelDescEEEE3$_0E10_M_managerERSt9_Any_dataRKSJ_St18_Manager_operation.exit", label %17

17:                                               ; preds = %15
  %18 = getelementptr inbounds nuw i8, ptr %.val7.i, i64 56
  tail call void @_ZN4pbrt5ImageD2Ev(ptr noundef nonnull align 8 dereferenceable(152) %18) #24
  %19 = getelementptr inbounds nuw i8, ptr %.val7.i, i64 48
  %20 = load i8, ptr %19, align 8, !tbaa !153, !range !115, !noundef !116
  %21 = trunc nuw i8 %20 to i1
  br i1 %21, label %_ZN4pstd8optionalIN4pbrt16ImageChannelDescEE5valueEv.exit.i.i.i.i.i, label %"_ZZN4pbrtL19GetImageDisplayItemERKNSt7__cxx1112basic_stringIcSt11char_traitsIcESaIcEEERKNS_5ImageEN4pstd8optionalINS_16ImageChannelDescEEEEN3$_0D2Ev.exit.i.i"

_ZN4pstd8optionalIN4pbrt16ImageChannelDescEE5valueEv.exit.i.i.i.i.i: ; preds = %17
  %22 = getelementptr inbounds nuw i8, ptr %.val7.i, i64 40
  store i64 0, ptr %22, align 8, !tbaa !155
  %23 = getelementptr inbounds nuw i8, ptr %.val7.i, i64 8
  %24 = load ptr, ptr %23, align 8, !tbaa !160
  %.not.i.i.i.i.i.i.i.i.i.i = icmp eq ptr %24, null
  br i1 %.not.i.i.i.i.i.i.i.i.i.i, label %"_ZZN4pbrtL19GetImageDisplayItemERKNSt7__cxx1112basic_stringIcSt11char_traitsIcESaIcEEERKNS_5ImageEN4pstd8optionalINS_16ImageChannelDescEEEEN3$_0D2Ev.exit.i.i", label %25

25:                                               ; preds = %_ZN4pstd8optionalIN4pbrt16ImageChannelDescEE5valueEv.exit.i.i.i.i.i
  %26 = getelementptr inbounds nuw i8, ptr %.val7.i, i64 32
  %27 = load i64, ptr %26, align 8, !tbaa !161
  %28 = shl i64 %27, 2
  %29 = load ptr, ptr %.val7.i, align 8, !tbaa !162
  %30 = load ptr, ptr %29, align 8, !tbaa !138
  %31 = getelementptr inbounds nuw i8, ptr %30, i64 24
  %32 = load ptr, ptr %31, align 8
  invoke void %32(ptr noundef nonnull align 8 dereferenceable(8) %29, ptr noundef nonnull %24, i64 noundef %28, i64 noundef 4)
          to label %"_ZZN4pbrtL19GetImageDisplayItemERKNSt7__cxx1112basic_stringIcSt11char_traitsIcESaIcEEERKNS_5ImageEN4pstd8optionalINS_16ImageChannelDescEEEEN3$_0D2Ev.exit.i.i" unwind label %33

33:                                               ; preds = %25
  %34 = landingpad { ptr, i32 }
          catch ptr null
  %35 = extractvalue { ptr, i32 } %34, 0
  tail call void @__clang_call_terminate(ptr %35) #28
  unreachable

"_ZZN4pbrtL19GetImageDisplayItemERKNSt7__cxx1112basic_stringIcSt11char_traitsIcESaIcEEERKNS_5ImageEN4pstd8optionalINS_16ImageChannelDescEEEEN3$_0D2Ev.exit.i.i": ; preds = %25, %_ZN4pstd8optionalIN4pbrt16ImageChannelDescEE5valueEv.exit.i.i.i.i.i, %17
  tail call void @_ZdlPvm(ptr noundef nonnull %.val7.i, i64 noundef 208) #26
  br label %"_ZNSt14_Function_base13_Base_managerIZN4pbrtL19GetImageDisplayItemERKNSt7__cxx1112basic_stringIcSt11char_traitsIcESaIcEEERKNS1_5ImageEN4pstd8optionalINS1_16ImageChannelDescEEEE3$_0E10_M_managerERSt9_Any_dataRKSJ_St18_Manager_operation.exit"

"_ZNSt14_Function_base13_Base_managerIZN4pbrtL19GetImageDisplayItemERKNSt7__cxx1112basic_stringIcSt11char_traitsIcESaIcEEERKNS1_5ImageEN4pstd8optionalINS1_16ImageChannelDescEEEE3$_0E10_M_managerERSt9_Any_dataRKSJ_St18_Manager_operation.exit": ; preds = %"_ZZN4pbrtL19GetImageDisplayItemERKNSt7__cxx1112basic_stringIcSt11char_traitsIcESaIcEEERKNS_5ImageEN4pstd8optionalINS_16ImageChannelDescEEEEN3$_0D2Ev.exit.i.i", %15, %"_ZNSt14_Function_base13_Base_managerIZN4pbrtL19GetImageDisplayItemERKNSt7__cxx1112basic_stringIcSt11char_traitsIcESaIcEEERKNS1_5ImageEN4pstd8optionalINS1_16ImageChannelDescEEEE3$_0E15_M_init_functorIRKSH_EEvRSt9_Any_dataOT_.exit.i", %6, %5, %4
  ret i1 false
}